target datalayout = "e-m:e-p270:32:32-p271:32:32-p272:64:64-i64:64-i128:128-f80:128-n8:16:32:64-S128"
target triple = "x86_64-unknown-linux-gnu"

%struct.DOECap = type { ptr, i16, %struct.anon, %struct.anon.0, %struct.anon.1, ptr, ptr, i32, i32, i32, ptr, i16 }
%struct.anon = type { i8, i16 }
%struct.anon.0 = type { i8, i8, i8 }
%struct.anon.1 = type { i8, i8, i8, i8 }

; Function Attrs: nounwind sspstrong uwtable
define internal void @pcie_doe_irq_assert(ptr noundef %doe_cap) #0 {
entry:
  %doe_cap.addr = alloca ptr, align 8
  %dev = alloca ptr, align 8
  store ptr %doe_cap, ptr %doe_cap.addr, align 8
  %0 = load ptr, ptr %doe_cap.addr, align 8
  %pdev = getelementptr inbounds %struct.DOECap, ptr %0, i32 0, i32 0
  %1 = load ptr, ptr %pdev, align 8
  store ptr %1, ptr %dev, align 8
  %2 = load ptr, ptr %doe_cap.addr, align 8
  %cap = getelementptr inbounds %struct.DOECap, ptr %2, i32 0, i32 2
  %intr = getelementptr inbounds %struct.anon, ptr %cap, i32 0, i32 0
  %3 = load i8, ptr %intr, align 2
  %tobool = trunc i8 %3 to i1
  br i1 %tobool, label %land.lhs.true, label %if.end18

land.lhs.true:                                    ; preds = %entry
  %4 = load ptr, ptr %doe_cap.addr, align 8
  %ctrl = getelementptr inbounds %struct.DOECap, ptr %4, i32 0, i32 3
  %intr1 = getelementptr inbounds %struct.anon.0, ptr %ctrl, i32 0, i32 1
  %5 = load i8, ptr %intr1, align 1
  %tobool2 = trunc i8 %5 to i1
  br i1 %tobool2, label %if.then, label %if.end18

if.then:                                          ; preds = %land.lhs.true
  %6 = load ptr, ptr %doe_cap.addr, align 8
  %status = getelementptr inbounds %struct.DOECap, ptr %6, i32 0, i32 4
  %intr3 = getelementptr inbounds %struct.anon.1, ptr %status, i32 0, i32 1
  %7 = load i8, ptr %intr3, align 1
  %tobool4 = trunc i8 %7 to i1
  br i1 %tobool4, label %if.then5, label %if.end

if.then5:                                         ; preds = %if.then
  br label %if.end18

if.end:                                           ; preds = %if.then
  %8 = load ptr, ptr %doe_cap.addr, align 8
  %status6 = getelementptr inbounds %struct.DOECap, ptr %8, i32 0, i32 4
  %intr7 = getelementptr inbounds %struct.anon.1, ptr %status6, i32 0, i32 1
  store i8 1, ptr %intr7, align 1
  %9 = load ptr, ptr %dev, align 8
  %call = call i32 @msix_enabled(ptr noundef %9)
  %tobool8 = icmp ne i32 %call, 0
  br i1 %tobool8, label %if.then9, label %if.else

if.then9:                                         ; preds = %if.end
  %10 = load ptr, ptr %dev, align 8
  %11 = load ptr, ptr %doe_cap.addr, align 8
  %cap10 = getelementptr inbounds %struct.DOECap, ptr %11, i32 0, i32 2
  %vec = getelementptr inbounds %struct.anon, ptr %cap10, i32 0, i32 1
  %12 = load i16, ptr %vec, align 2
  %conv = zext i16 %12 to i32
  call void @msix_notify(ptr noundef %10, i32 noundef %conv)
  br label %if.end17

if.else:                                          ; preds = %if.end
  %13 = load ptr, ptr %dev, align 8
  %call11 = call zeroext i1 @msi_enabled(ptr noundef %13)
  br i1 %call11, label %if.then12, label %if.end16

if.then12:                                        ; preds = %if.else
  %14 = load ptr, ptr %dev, align 8
  %15 = load ptr, ptr %doe_cap.addr, align 8
  %cap13 = getelementptr inbounds %struct.DOECap, ptr %15, i32 0, i32 2
  %vec14 = getelementptr inbounds %struct.anon, ptr %cap13, i32 0, i32 1
  %16 = load i16, ptr %vec14, align 2
  %conv15 = zext i16 %16 to i32
  call void @msi_notify(ptr noundef %14, i32 noundef %conv15)
  br label %if.end16

if.end16:                                         ; preds = %if.then12, %if.else
  br label %if.end17

if.end17:                                         ; preds = %if.end16, %if.then9
  br label %if.end18

if.end18:                                         ; preds = %if.end17, %if.then5, %land.lhs.true, %entry
  ret void
}

; Function Attrs: nounwind sspstrong uwtable
define internal void @pcie_doe_set_error(ptr noundef %doe_cap, i1 noundef zeroext %err) #0 {
entry:
  %doe_cap.addr = alloca ptr, align 8
  %err.addr = alloca i8, align 1
  store ptr %doe_cap, ptr %doe_cap.addr, align 8
  %frombool = zext i1 %err to i8
  store i8 %frombool, ptr %err.addr, align 1
  %0 = load i8, ptr %err.addr, align 1
  %tobool = trunc i8 %0 to i1
  %1 = load ptr, ptr %doe_cap.addr, align 8
  %status = getelementptr inbounds %struct.DOECap, ptr %1, i32 0, i32 4
  %error = getelementptr inbounds %struct.anon.1, ptr %status, i32 0, i32 2
  %frombool1 = zext i1 %tobool to i8
  store i8 %frombool1, ptr %error, align 1
  %2 = load i8, ptr %err.addr, align 1
  %tobool2 = trunc i8 %2 to i1
  br i1 %tobool2, label %if.then, label %if.end

if.then:                                          ; preds = %entry
  %3 = load ptr, ptr %doe_cap.addr, align 8
  call void @pcie_doe_irq_assert(ptr noundef %3)
  br label %if.end

if.end:                                           ; preds = %if.then, %entry
  ret void
}