; Function Attrs: nounwind sspstrong uwtable
define internal fastcc void @pcie_doe_set_error(ptr noundef captures(none) initializes((19, 20)) %doe_cap, i1 noundef zeroext %err) unnamed_addr #0 {
entry:
  %frombool = zext i1 %err to i8
  %error = getelementptr inbounds nuw i8, ptr %doe_cap, i64 19
  store i8 %frombool, ptr %error, align 1
  br i1 %err, label %if.then, label %if.end

if.then:                                          ; preds = %entry
  %0 = load ptr, ptr %doe_cap, align 8
  %cap.i = getelementptr inbounds nuw i8, ptr %doe_cap, i64 10
  %1 = load i8, ptr %cap.i, align 2
  %tobool.i = trunc i8 %1 to i1
  br i1 %tobool.i, label %land.lhs.true.i, label %if.end

land.lhs.true.i:                                  ; preds = %if.then
  %intr1.i = getelementptr inbounds nuw i8, ptr %doe_cap, i64 15
  %2 = load i8, ptr %intr1.i, align 1
  %tobool2.i = trunc i8 %2 to i1
  br i1 %tobool2.i, label %if.then.i, label %if.end

if.then.i:                                        ; preds = %land.lhs.true.i
  %intr3.i = getelementptr inbounds nuw i8, ptr %doe_cap, i64 18
  %3 = load i8, ptr %intr3.i, align 1
  %tobool4.i = trunc i8 %3 to i1
  br i1 %tobool4.i, label %if.end, label %if.end.i

if.end.i:                                         ; preds = %if.then.i
  store i8 1, ptr %intr3.i, align 1
  %call.i = tail call i32 @msix_enabled(ptr noundef %0) #9
  %tobool8.not.i = icmp eq i32 %call.i, 0
  br i1 %tobool8.not.i, label %if.else.i, label %if.then9.i

if.then9.i:                                       ; preds = %if.end.i
  %vec.i = getelementptr inbounds nuw i8, ptr %doe_cap, i64 12
  %4 = load i16, ptr %vec.i, align 2
  %conv.i = zext i16 %4 to i32
  tail call void @msix_notify(ptr noundef %0, i32 noundef %conv.i) #9
  br label %if.end

if.else.i:                                        ; preds = %if.end.i
  %call11.i = tail call zeroext i1 @msi_enabled(ptr noundef %0) #9
  br i1 %call11.i, label %if.then12.i, label %if.end

if.then12.i:                                      ; preds = %if.else.i
  %vec14.i = getelementptr inbounds nuw i8, ptr %doe_cap, i64 12
  %5 = load i16, ptr %vec14.i, align 2
  %conv15.i = zext i16 %5 to i32
  tail call void @msi_notify(ptr noundef %0, i32 noundef %conv15.i) #9
  br label %if.end

if.end:                                           ; preds = %if.then12.i, %if.else.i, %if.then9.i, %if.then.i, %land.lhs.true.i, %if.then, %entry
  ret void
}